; ModuleID = '60/827.c'
source_filename = "60/827.c"
target datalayout = "e-m:e-p270:32:32-p271:32:32-p272:64:64-i64:64-f80:128-n8:16:32:64-S128"
target triple = "x86_64-pc-linux-gnu"

@.str = private unnamed_addr constant [3 x i8] c"%d\00", align 1
@.str.1 = private unnamed_addr constant [6 x i8] c"empty\00", align 1
@.str.2 = private unnamed_addr constant [7 x i8] c"%d %d\0A\00", align 1

; Function Attrs: noinline nounwind uwtable
define dso_local i32 @main() #0 {
  %1 = alloca i32, align 4
  %2 = alloca i32, align 4
  %3 = alloca i32, align 4
  %4 = alloca i32, align 4
  %5 = alloca i32, align 4
  %6 = alloca i32, align 4
  store i32 0, i32* %1, align 4
  %7 = call i32 (i8*, ...) @__isoc99_scanf(i8* getelementptr inbounds ([3 x i8], [3 x i8]* @.str, i64 0, i64 0), i32* %2)
  %8 = load i32, i32* %2, align 4
  %9 = icmp slt i32 %8, 5
  br i1 %9, label %10, label %12

10:                                               ; preds = %0
  %11 = call i32 (i8*, ...) @printf(i8* getelementptr inbounds ([6 x i8], [6 x i8]* @.str.1, i64 0, i64 0))
  br label %76

12:                                               ; preds = %0
  store i32 3, i32* %3, align 4
  br label %13

13:                                               ; preds = %72, %12
  %14 = load i32, i32* %3, align 4
  %15 = load i32, i32* %2, align 4
  %16 = sub nsw i32 %15, 2
  %17 = icmp sle i32 %14, %16
  br i1 %17, label %18, label %75

18:                                               ; preds = %13
  store i32 2, i32* %4, align 4
  br label %19

19:                                               ; preds = %68, %18
  %20 = load i32, i32* %4, align 4
  %21 = load i32, i32* %3, align 4
  %22 = icmp slt i32 %20, %21
  br i1 %22, label %23, label %71

23:                                               ; preds = %19
  %24 = load i32, i32* %3, align 4
  %25 = load i32, i32* %4, align 4
  %26 = srem i32 %24, %25
  %27 = icmp eq i32 %26, 0
  br i1 %27, label %28, label %29

28:                                               ; preds = %23
  br label %71

29:                                               ; preds = %23
  %30 = load i32, i32* %4, align 4
  %31 = load i32, i32* %3, align 4
  %32 = sub nsw i32 %31, 1
  %33 = icmp ne i32 %30, %32
  br i1 %33, label %34, label %35

34:                                               ; preds = %29
  br label %68

35:                                               ; preds = %29
  store i32 2, i32* %5, align 4
  br label %36

36:                                               ; preds = %62, %35
  %37 = load i32, i32* %5, align 4
  %38 = load i32, i32* %3, align 4
  %39 = add nsw i32 %38, 2
  %40 = icmp slt i32 %37, %39
  br i1 %40, label %41, label %65

41:                                               ; preds = %36
  %42 = load i32, i32* %3, align 4
  %43 = add nsw i32 %42, 2
  %44 = load i32, i32* %5, align 4
  %45 = srem i32 %43, %44
  %46 = icmp eq i32 %45, 0
  br i1 %46, label %47, label %48

47:                                               ; preds = %41
  br label %65

48:                                               ; preds = %41
  %49 = load i32, i32* %5, align 4
  %50 = load i32, i32* %3, align 4
  %51 = add nsw i32 %50, 1
  %52 = icmp ne i32 %49, %51
  br i1 %52, label %53, label %54

53:                                               ; preds = %48
  br label %62

54:                                               ; preds = %48
  %55 = load i32, i32* %3, align 4
  %56 = add nsw i32 %55, 2
  store i32 %56, i32* %6, align 4
  %57 = load i32, i32* %3, align 4
  %58 = load i32, i32* %6, align 4
  %59 = call i32 (i8*, ...) @printf(i8* getelementptr inbounds ([7 x i8], [7 x i8]* @.str.2, i64 0, i64 0), i32 %57, i32 %58)
  br label %60

60:                                               ; preds = %54
  br label %61

61:                                               ; preds = %60
  br label %62

62:                                               ; preds = %61, %53
  %63 = load i32, i32* %5, align 4
  %64 = add nsw i32 %63, 1
  store i32 %64, i32* %5, align 4
  br label %36

65:                                               ; preds = %47, %36
  br label %66

66:                                               ; preds = %65
  br label %67

67:                                               ; preds = %66
  br label %68

68:                                               ; preds = %67, %34
  %69 = load i32, i32* %4, align 4
  %70 = add nsw i32 %69, 1
  store i32 %70, i32* %4, align 4
  br label %19

71:                                               ; preds = %28, %19
  br label %72

72:                                               ; preds = %71
  %73 = load i32, i32* %3, align 4
  %74 = add nsw i32 %73, 1
  store i32 %74, i32* %3, align 4
  br label %13

75:                                               ; preds = %13
  br label %76

76:                                               ; preds = %75, %10
  ret i32 0
}

declare dso_local i32 @__isoc99_scanf(i8*, ...) #1

declare dso_local i32 @printf(i8*, ...) #1


!llvm.module.flags = !{!0}
!llvm.ident = !{!1}

!0 = !{i32 1, !"wchar_size", i32 4}
!1 = !{!"clang version 10.0.0-4ubuntu1 "}
