; ModuleID = 'source-C-CXX/59/827.c'
source_filename = "source-C-CXX/59/827.c"
target datalayout = "e-m:e-p270:32:32-p271:32:32-p272:64:64-i64:64-f80:128-n8:16:32:64-S128"
target triple = "x86_64-pc-linux-gnu"

@.str = private unnamed_addr constant [3 x i8] c"%d\00", align 1
@.str.1 = private unnamed_addr constant [6 x i8] c"empty\00", align 1
@.str.2 = private unnamed_addr constant [7 x i8] c"%d %d\0A\00", align 1

; Function Attrs: nofree nounwind sspstrong uwtable
define dso_local i32 @main() local_unnamed_addr #0 {
  %1 = alloca i32, align 4
  %2 = bitcast i32* %1 to i8*
  call void @llvm.lifetime.start.p0i8(i64 4, i8* nonnull %2) #3
  %3 = call i32 (i8*, ...) @__isoc99_scanf(i8* getelementptr inbounds ([3 x i8], [3 x i8]* @.str, i64 0, i64 0), i32* nonnull %1)
  %4 = load i32, i32* %1, align 4, !tbaa !5
  %5 = icmp slt i32 %4, 5
  br i1 %5, label %6, label %8

6:                                                ; preds = %0
  %7 = call i32 (i8*, ...) @printf(i8* nonnull dereferenceable(1) getelementptr inbounds ([6 x i8], [6 x i8]* @.str.1, i64 0, i64 0))
  br label %39

8:                                                ; preds = %0, %34
  %9 = phi i32 [ %38, %34 ], [ 5, %0 ]
  %10 = phi i32 [ %13, %34 ], [ 3, %0 ]
  %11 = add nsw i32 %10, -1
  %12 = add nuw nsw i32 %10, 2
  %13 = add nuw nsw i32 %10, 1
  br label %14

14:                                               ; preds = %8, %31
  %15 = phi i32 [ %32, %31 ], [ 2, %8 ]
  %16 = urem i32 %10, %15
  %17 = icmp eq i32 %16, 0
  br i1 %17, label %34, label %18

18:                                               ; preds = %14
  %19 = icmp eq i32 %15, %11
  br i1 %19, label %20, label %31

20:                                               ; preds = %18, %28
  %21 = phi i32 [ %29, %28 ], [ 2, %18 ]
  %22 = urem i32 %12, %21
  %23 = icmp eq i32 %22, 0
  br i1 %23, label %31, label %24

24:                                               ; preds = %20
  %25 = icmp eq i32 %21, %13
  br i1 %25, label %26, label %28

26:                                               ; preds = %24
  %27 = call i32 (i8*, ...) @printf(i8* nonnull dereferenceable(1) getelementptr inbounds ([7 x i8], [7 x i8]* @.str.2, i64 0, i64 0), i32 %10, i32 %12)
  br label %28

28:                                               ; preds = %24, %26
  %29 = add nuw i32 %21, 1
  %30 = icmp eq i32 %29, %9
  br i1 %30, label %31, label %20, !llvm.loop !9

31:                                               ; preds = %28, %20, %18
  %32 = add nuw nsw i32 %15, 1
  %33 = icmp eq i32 %32, %10
  br i1 %33, label %34, label %14, !llvm.loop !11

34:                                               ; preds = %14, %31
  %35 = load i32, i32* %1, align 4, !tbaa !5
  %36 = add nsw i32 %35, -2
  %37 = icmp slt i32 %10, %36
  %38 = add nuw i32 %9, 1
  br i1 %37, label %8, label %39, !llvm.loop !12

39:                                               ; preds = %34, %6
  call void @llvm.lifetime.end.p0i8(i64 4, i8* nonnull %2) #3
  ret i32 0
}

; Function Attrs: argmemonly mustprogress nofree nosync nounwind willreturn
declare void @llvm.lifetime.start.p0i8(i64 immarg, i8* nocapture) #1

; Function Attrs: nofree nounwind
declare noundef i32 @__isoc99_scanf(i8* nocapture noundef readonly, ...) local_unnamed_addr #2

; Function Attrs: nofree nounwind
declare noundef i32 @printf(i8* nocapture noundef readonly, ...) local_unnamed_addr #2

; Function Attrs: argmemonly mustprogress nofree nosync nounwind willreturn
declare void @llvm.lifetime.end.p0i8(i64 immarg, i8* nocapture) #1


!llvm.module.flags = !{!0, !1, !2, !3}
!llvm.ident = !{!4}

!0 = !{i32 1, !"wchar_size", i32 4}
!1 = !{i32 7, !"PIC Level", i32 2}
!2 = !{i32 7, !"PIE Level", i32 2}
!3 = !{i32 7, !"uwtable", i32 1}
!4 = !{!"clang version 13.0.0"}
!5 = !{!6, !6, i64 0}
!6 = !{!"int", !7, i64 0}
!7 = !{!"omnipotent char", !8, i64 0}
!8 = !{!"Simple C/C++ TBAA"}
!9 = distinct !{!9, !10}
!10 = !{!"llvm.loop.mustprogress"}
!11 = distinct !{!11, !10}
!12 = distinct !{!12, !10}
